Certificate:
    Data:
        Version: 3 (0x2)
        Serial Number: 1053424929 (0x3ec9fd21)
    Signature Algorithm: sha1WithRSAEncryption
        Issuer: C=HR, O=FINA, OU=DEMO
        Validity
            Not Before: May 20 09:32:11 2003 GMT
            Not After : May 20 10:02:11 2023 GMT
        Subject: C=HR, O=FINA, OU=DEMO
        Subject Public Key Info:
            Public Key Algorithm: rsaEncryption
                Public-Key: (2048 bit)
                Modulus:
                    00:c4:f0:6b:ba:c3:c5:38:3c:d5:82:3f:47:6e:ae:
                    13:23:f9:bf:61:f9:ba:0c:b7:50:74:3b:de:a2:2f:
                    da:d7:66:88:bc:6f:2e:be:89:9e:90:07:08:b7:5a:
                    47:c2:ff:30:17:a2:db:6a:17:9f:8e:c8:3e:7c:e3:
                    f0:39:dd:4e:a8:ae:ad:72:b5:32:b3:09:27:82:c3:
                    b6:8d:85:02:22:fd:0a:4d:7b:1d:4b:68:b2:52:b0:
                    b1:d8:50:c0:0e:e3:92:96:4f:74:1d:29:3d:ee:5f:
                    71:0f:51:82:1a:f2:0c:6d:a0:37:60:1f:79:e0:2e:
                    1c:41:b6:f2:96:01:9e:51:71:a8:3d:e3:80:a4:8a:
                    09:32:18:ee:ac:f1:cb:ce:e6:af:ba:d1:95:00:a5:
                    d3:bb:8f:b1:67:8c:d8:90:55:ae:c6:40:d2:b8:80:
                    52:33:b5:75:84:6e:b4:ab:83:16:39:82:74:d5:fb:
                    e3:0b:a9:5c:73:3b:30:01:8b:33:3a:1c:04:85:c2:
                    0f:3f:b1:7d:01:3c:e0:be:5d:c7:a4:ff:7c:3a:9e:
                    07:52:bc:1c:c8:65:05:37:c0:54:00:32:6b:93:b2:
                    74:44:1f:b1:bc:b5:12:90:70:65:74:9b:5f:22:0c:
                    af:21:2f:b5:08:63:eb:0b:93:61:59:65:cf:55:f2:
                    1c:47
                Exponent: 65537 (0x10001)
        X509v3 extensions:
            Netscape Cert Type: 
                SSL CA, S/MIME CA, Object Signing CA
            X509v3 CRL Distribution Points: 

                Full Name:
                  DirName: C = HR, O = FINA, OU = DEMO, CN = CRL1

            X509v3 Private Key Usage Period: 
                Not Before: May 20 09:32:11 2003 GMT, Not After: May 20 10:02:11 2023 GMT
            X509v3 Key Usage: 
                Certificate Sign, CRL Sign
            X509v3 Authority Key Identifier: 
                keyid:7A:60:23:8E:48:9D:32:6B:A4:E5:2D:DD:B8:59:B4:94:FC:42:62:9E

            X509v3 Subject Key Identifier: 
                7A:60:23:8E:48:9D:32:6B:A4:E5:2D:DD:B8:59:B4:94:FC:42:62:9E
            X509v3 Basic Constraints: 
                CA:TRUE
            1.2.840.113533.7.65.0: 
                0...V6.0:4.0....
    Signature Algorithm: sha1WithRSAEncryption
         94:c3:2f:d8:f6:db:f4:14:5e:e3:bf:b7:e5:21:d0:c8:92:fa:
         21:94:04:4b:2a:43:05:6e:33:ae:89:4a:bc:41:7a:bf:1a:a8:
         de:53:01:d4:82:06:7f:9e:ad:c3:bb:f6:8a:9f:05:6e:07:14:
         48:03:88:9a:1c:11:58:33:80:9a:32:e6:d5:de:f0:71:73:47:
         44:d6:ca:3e:c6:c9:79:e7:0e:1f:2f:cb:43:f6:08:d3:a0:75:
         4f:84:72:f6:ec:5b:e1:0c:a3:cc:0a:e7:4d:e9:a6:4f:15:5b:
         e8:12:ab:5f:cc:dd:0a:22:d3:e0:2b:46:6d:49:f8:ba:8a:8a:
         1a:ff:97:98:0c:26:52:8e:5c:26:ad:b2:96:09:02:ce:d7:e0:
         a0:ab:d8:1a:3c:d7:7e:39:b2:10:c1:a9:73:2c:3e:4b:38:49:
         33:b0:f7:44:68:43:ed:90:21:e3:0f:ee:37:85:fd:b5:88:f9:
         dd:e3:bc:7e:8c:0a:73:e9:20:60:fa:0f:c4:5b:7a:c3:04:3a:
         78:e1:0b:36:af:9b:43:cd:d5:05:83:98:ed:e0:f7:e8:41:23:
         ff:f2:7d:95:df:4e:57:78:0e:26:08:e7:16:75:f4:cc:5b:d7:
         b6:06:88:0f:ee:67:93:01:4a:67:09:33:36:9f:3f:3f:fd:6c:
         62:b2:c7:dc
-----BEGIN CERTIFICATE-----
MIID4zCCAsugAwIBAgIEPsn9ITANBgkqhkiG9w0BAQUFADArMQswCQYDVQQGEwJI
UjENMAsGA1UEChMERklOQTENMAsGA1UECxMEREVNTzAeFw0wMzA1MjAwOTMyMTFa
Fw0yMzA1MjAxMDAyMTFaMCsxCzAJBgNVBAYTAkhSMQ0wCwYDVQQKEwRGSU5BMQ0w
CwYDVQQLEwRERU1PMIIBIjANBgkqhkiG9w0BAQEFAAOCAQ8AMIIBCgKCAQEAxPBr
usPFODzVgj9Hbq4TI/m/Yfm6DLdQdDveoi/a12aIvG8uvomekAcIt1pHwv8wF6Lb
ahefjsg+fOPwOd1OqK6tcrUyswkngsO2jYUCIv0KTXsdS2iyUrCx2FDADuOSlk90
HSk97l9xD1GCGvIMbaA3YB954C4cQbbylgGeUXGoPeOApIoJMhjurPHLzuavutGV
AKXTu4+xZ4zYkFWuxkDSuIBSM7V1hG60q4MWOYJ01fvjC6lcczswAYszOhwEhcIP
P7F9ATzgvl3HpP98Op4HUrwcyGUFN8BUADJrk7J0RB+xvLUSkHBldJtfIgyvIS+1
CGPrC5NhWWXPVfIcRwIDAQABo4IBDTCCAQkwEQYJYIZIAYb4QgEBBAQDAgAHME0G
A1UdHwRGMEQwQqBAoD6kPDA6MQswCQYDVQQGEwJIUjENMAsGA1UEChMERklOQTEN
MAsGA1UECxMEREVNTzENMAsGA1UEAxMEQ1JMMTArBgNVHRAEJDAigA8yMDAzMDUy
MDA5MzIxMVqBDzIwMjMwNTIwMTAwMjExWjALBgNVHQ8EBAMCAQYwHwYDVR0jBBgw
FoAUemAjjkidMmuk5S3duFm0lPxCYp4wHQYDVR0OBBYEFHpgI45InTJrpOUt3bhZ
tJT8QmKeMAwGA1UdEwQFMAMBAf8wHQYJKoZIhvZ9B0EABBAwDhsIVjYuMDo0LjAD
AgSQMA0GCSqGSIb3DQEBBQUAA4IBAQCUwy/Y9tv0FF7jv7flIdDIkvohlARLKkMF
bjOuiUq8QXq/GqjeUwHUggZ/nq3Du/aKnwVuBxRIA4iaHBFYM4CaMubV3vBxc0dE
1so+xsl55w4fL8tD9gjToHVPhHL27FvhDKPMCudN6aZPFVvoEqtfzN0KItPgK0Zt
Sfi6iooa/5eYDCZSjlwmrbKWCQLO1+Cgq9gaPNd+ObIQwalzLD5LOEkzsPdEaEPt
kCHjD+43hf21iPnd47x+jApz6SBg+g/EW3rDBDp44Qs2r5tDzdUFg5jt4PfoQSP/
8n2V305XeA4mCOcWdfTMW9e2BogP7meTAUpnCTM2nz8//Wxissfc
-----END CERTIFICATE-----
Certificate:
    Data:
        Version: 3 (0x2)
        Serial Number:
            db:5f:7c:e1:00:00:00:00:53:28:1c:9f
    Signature Algorithm: sha256WithRSAEncryption
        Issuer: C=HR, O=Financijska agencija, CN=Fina Demo Root CA
        Validity
            Not Before: Mar 18 09:45:00 2014 GMT
            Not After : Mar 18 10:15:00 2034 GMT
        Subject: C=HR, O=Financijska agencija, CN=Fina Demo Root CA
        Subject Public Key Info:
            Public Key Algorithm: rsaEncryption
                Public-Key: (4096 bit)
                Modulus:
                    00:97:cb:dc:39:70:59:ce:e2:e2:c3:5b:0e:1b:85:
                    d4:58:71:a6:d0:57:dc:9b:64:5e:29:74:e2:e5:e0:
                    cd:19:9f:aa:e9:19:e2:34:82:4e:97:7d:55:d7:35:
                    c6:2c:de:b3:46:31:b7:da:31:b5:ac:48:0c:a5:8b:
                    b6:74:3b:96:9e:ad:bb:2a:27:ef:ee:61:e5:9e:3f:
                    51:9e:9d:dc:24:ca:a6:cf:f6:17:d5:20:60:0c:c6:
                    d4:a5:d8:22:25:2b:18:38:6f:24:91:07:85:11:b7:
                    c0:77:1a:6a:0c:91:e1:81:af:d2:43:26:97:3c:3f:
                    12:6a:77:b4:d6:55:98:77:b8:34:43:74:5c:2c:c2:
                    42:9e:99:9f:c0:c6:a1:fa:37:2a:e8:5f:bc:48:b9:
                    3a:44:86:85:1d:24:3d:2b:3b:68:45:fa:e7:84:90:
                    82:9f:fe:ae:ec:e6:8e:d2:2d:a3:01:9b:8c:43:3f:
                    d5:0d:69:0f:c1:83:7b:9d:d5:4a:93:2b:91:19:bf:
                    b5:8c:f0:18:bc:24:00:ac:06:27:f8:72:9e:b8:41:
                    c6:fe:81:98:43:45:79:b8:44:d2:ae:f6:fb:e3:e4:
                    4f:81:6c:37:fe:70:30:f1:5a:0a:5a:f3:52:3e:b0:
                    06:84:e8:ae:e2:1e:20:c9:ee:b7:9c:5d:fd:59:e4:
                    90:de:70:37:ca:38:b7:31:d3:92:ed:ce:0e:8b:45:
                    17:c2:9b:ff:f9:30:9a:c4:6a:c4:4b:f0:8b:70:f3:
                    e0:6e:f4:c5:80:3c:f9:ec:ac:6f:42:ec:b8:ed:4c:
                    36:6a:f1:cf:6a:18:39:dd:a5:1b:58:97:11:07:84:
                    57:51:91:14:cf:48:1f:6e:70:ef:f8:8c:04:e2:03:
                    5f:8e:87:86:b7:c2:8e:a8:55:b9:62:00:2c:1a:1d:
                    9c:8b:bd:79:a8:9d:e0:f0:1f:1c:24:f1:3b:25:db:
                    ea:7e:64:13:97:b4:2b:ce:dc:77:d4:55:45:9e:ca:
                    82:51:f2:7d:3a:8b:49:b1:7d:25:de:c1:a8:dc:bc:
                    6f:30:4e:73:c8:69:a5:50:9b:91:6d:02:fa:e7:2a:
                    50:8e:93:d9:0b:1b:c9:6f:35:23:5b:0e:0b:92:29:
                    37:a5:37:00:31:16:80:6d:76:c3:8a:5d:80:11:28:
                    25:76:eb:22:33:25:33:4d:52:4d:f1:9e:dd:ca:75:
                    2a:32:6a:93:1d:1d:a4:f1:98:a0:e6:d9:fe:fc:36:
                    de:ad:8e:ec:e1:ae:36:c2:c9:b9:a0:12:dd:33:78:
                    50:c4:a0:0b:a1:b1:3a:61:25:a2:d9:45:99:c8:4a:
                    94:81:38:15:c9:6b:71:65:ce:a9:45:a4:6d:16:39:
                    4a:9d:1f
                Exponent: 65537 (0x10001)
        X509v3 extensions:
            X509v3 Key Usage: critical
                Certificate Sign, CRL Sign
            X509v3 Basic Constraints: critical
                CA:TRUE
            X509v3 Authority Key Identifier: 
                keyid:5F:6F:5B:39:C9:7F:41:E6:E6:91:15:FA:A1:B6:B5:B2:E7:82:55:D5

            X509v3 Subject Key Identifier: 
                5F:6F:5B:39:C9:7F:41:E6:E6:91:15:FA:A1:B6:B5:B2:E7:82:55:D5
    Signature Algorithm: sha256WithRSAEncryption
         92:25:03:ea:18:f8:66:73:c4:86:43:6d:da:09:e3:e3:39:71:
         79:de:43:47:e5:8e:59:35:b7:a1:e9:f8:d6:b7:9b:42:f6:ed:
         1f:c9:51:b1:2d:88:62:c2:ca:47:de:d3:37:31:48:a3:90:1a:
         9e:b9:3d:00:0e:3a:f0:bf:f9:ab:89:6f:79:b5:de:0a:92:8b:
         6e:b5:f9:98:ac:93:de:4f:a6:5b:3c:8d:15:1f:ee:32:60:d3:
         ee:61:4e:3f:b8:81:32:f2:2d:dd:4b:17:76:86:6e:4c:bc:16:
         a4:6c:db:7e:27:81:95:01:e4:ff:ce:d7:03:66:dc:68:a5:8a:
         c0:c5:de:7c:fa:ad:d2:0f:7a:40:1e:7d:6f:7a:f5:0a:c2:9a:
         b1:6b:86:cc:4a:a8:2b:d0:4a:b8:c8:45:12:50:b4:5f:32:b5:
         f4:77:45:99:5e:80:52:dd:5a:12:ac:39:6d:17:6e:a0:c8:e9:
         12:0d:fb:a7:b6:63:42:5e:95:0a:73:16:c1:38:f2:d5:3b:70:
         fb:51:fd:7f:7d:1d:0d:13:bf:4a:08:e2:6d:b9:4e:2a:b0:a9:
         6b:2c:47:9f:25:0b:7b:69:ad:79:90:23:5f:93:8c:68:01:01:
         b4:86:2d:59:2f:d7:b7:89:5c:aa:c4:64:03:f7:ab:42:c4:c5:
         c3:61:03:ed:f8:fb:16:d6:e2:f2:4e:d6:ef:74:53:a9:c3:3e:
         3e:e3:75:1f:aa:34:5e:63:54:ed:39:20:1f:d7:e0:3e:79:70:
         f4:4f:34:10:54:16:56:85:45:3a:6d:1e:31:57:e1:b9:cd:b8:
         5c:76:30:23:96:a2:c6:c6:63:d2:65:38:30:c9:9b:6d:e4:96:
         de:7e:42:cc:bd:2e:5a:26:8e:71:50:96:80:4a:0e:f2:79:16:
         85:79:f1:91:3d:80:48:8c:57:9c:d4:e1:85:8f:d3:1c:f0:5a:
         64:34:92:f5:3d:e9:ba:ea:93:9b:a8:cd:5c:7f:cb:f1:9c:84:
         37:c9:91:ee:26:0a:b4:f8:4b:6c:88:e8:d9:25:05:92:03:53:
         e1:36:22:f2:2e:db:1f:76:24:10:2d:35:dc:41:38:48:13:ce:
         fe:b9:7d:64:f0:14:8e:7e:d3:3e:53:eb:ec:a7:f5:e4:07:50:
         66:6c:86:0f:d8:ad:a4:15:6e:b6:72:a3:ef:df:5d:69:e3:f6:
         3d:e1:86:f4:9e:d1:cf:ea:3e:67:f8:e9:90:e7:5d:eb:01:6e:
         3f:55:e5:4c:04:77:87:b9:6e:87:39:6f:41:3d:82:86:bb:a3:
         b6:1d:33:0e:55:11:fe:a4:15:90:a4:ce:11:aa:e4:d1:bc:83:
         8f:03:20:2a:eb:ee:41:19
-----BEGIN CERTIFICATE-----
MIIFejCCA2KgAwIBAgINANtffOEAAAAAUygcnzANBgkqhkiG9w0BAQsFADBIMQsw
CQYDVQQGEwJIUjEdMBsGA1UEChMURmluYW5jaWpza2EgYWdlbmNpamExGjAYBgNV
BAMTEUZpbmEgRGVtbyBSb290IENBMB4XDTE0MDMxODA5NDUwMFoXDTM0MDMxODEw
MTUwMFowSDELMAkGA1UEBhMCSFIxHTAbBgNVBAoTFEZpbmFuY2lqc2thIGFnZW5j
aWphMRowGAYDVQQDExFGaW5hIERlbW8gUm9vdCBDQTCCAiIwDQYJKoZIhvcNAQEB
BQADggIPADCCAgoCggIBAJfL3DlwWc7i4sNbDhuF1FhxptBX3JtkXil04uXgzRmf
qukZ4jSCTpd9Vdc1xizes0Yxt9oxtaxIDKWLtnQ7lp6tuyon7+5h5Z4/UZ6d3CTK
ps/2F9UgYAzG1KXYIiUrGDhvJJEHhRG3wHcaagyR4YGv0kMmlzw/Emp3tNZVmHe4
NEN0XCzCQp6Zn8DGofo3KuhfvEi5OkSGhR0kPSs7aEX654SQgp/+ruzmjtItowGb
jEM/1Q1pD8GDe53VSpMrkRm/tYzwGLwkAKwGJ/hynrhBxv6BmENFebhE0q72++Pk
T4FsN/5wMPFaClrzUj6wBoToruIeIMnut5xd/VnkkN5wN8o4tzHTku3ODotFF8Kb
//kwmsRqxEvwi3Dz4G70xYA8+eysb0LsuO1MNmrxz2oYOd2lG1iXEQeEV1GRFM9I
H25w7/iMBOIDX46HhrfCjqhVuWIALBodnIu9eaid4PAfHCTxOyXb6n5kE5e0K87c
d9RVRZ7KglHyfTqLSbF9Jd7BqNy8bzBOc8hppVCbkW0C+ucqUI6T2QsbyW81I1sO
C5IpN6U3ADEWgG12w4pdgBEoJXbrIjMlM01STfGe3cp1KjJqkx0dpPGYoObZ/vw2
3q2O7OGuNsLJuaAS3TN4UMSgC6GxOmElotlFmchKlIE4FclrcWXOqUWkbRY5Sp0f
AgMBAAGjYzBhMA4GA1UdDwEB/wQEAwIBBjAPBgNVHRMBAf8EBTADAQH/MB8GA1Ud
IwQYMBaAFF9vWznJf0Hm5pEV+qG2tbLnglXVMB0GA1UdDgQWBBRfb1s5yX9B5uaR
FfqhtrWy54JV1TANBgkqhkiG9w0BAQsFAAOCAgEAkiUD6hj4ZnPEhkNt2gnj4zlx
ed5DR+WOWTW3oen41rebQvbtH8lRsS2IYsLKR97TNzFIo5Aanrk9AA468L/5q4lv
ebXeCpKLbrX5mKyT3k+mWzyNFR/uMmDT7mFOP7iBMvIt3UsXdoZuTLwWpGzbfieB
lQHk/87XA2bcaKWKwMXefPqt0g96QB59b3r1CsKasWuGzEqoK9BKuMhFElC0XzK1
9HdFmV6AUt1aEqw5bRduoMjpEg37p7ZjQl6VCnMWwTjy1Ttw+1H9f30dDRO/Sgji
bblOKrCpayxHnyULe2mteZAjX5OMaAEBtIYtWS/Xt4lcqsRkA/erQsTFw2ED7fj7
Ftbi8k7W73RTqcM+PuN1H6o0XmNU7TkgH9fgPnlw9E80EFQWVoVFOm0eMVfhuc24
XHYwI5aixsZj0mU4MMmbbeSW3n5CzL0uWiaOcVCWgEoO8nkWhXnxkT2ASIxXnNTh
hY/THPBaZDSS9T3puuqTm6jNXH/L8ZyEN8mR7iYKtPhLbIjo2SUFkgNT4TYi8i7b
H3YkEC013EE4SBPO/rl9ZPAUjn7TPlPr7Kf15AdQZmyGD9itpBVutnKj799daeP2
PeGG9J7Rz+o+Z/jpkOdd6wFuP1XlTAR3h7luhzlvQT2Chrujth0zDlUR/qQVkKTO
Eark0byDjwMgKuvuQRk=
-----END CERTIFICATE-----
Certificate:
    Data:
        Version: 3 (0x2)
        Serial Number:
            e7:1e:c9:59:00:00:00:00:53:28:1d:e4
    Signature Algorithm: sha256WithRSAEncryption
        Issuer: C=HR, O=Financijska agencija, CN=Fina Demo Root CA
        Validity
            Not Before: Mar 25 04:45:47 2014 GMT
            Not After : Mar 25 05:15:47 2024 GMT
        Subject: C=HR, O=Financijska agencija, CN=Fina Demo CA 2014
        Subject Public Key Info:
            Public Key Algorithm: rsaEncryption
                Public-Key: (4096 bit)
                Modulus:
                    00:c0:62:df:ce:c9:5d:bb:88:9d:e6:2f:b3:f3:5d:
                    be:17:95:29:be:d1:1a:b5:f9:be:e2:2b:c5:a1:f0:
                    d6:26:4d:1a:bb:b4:4f:4a:47:c2:bf:cb:13:a0:5c:
                    15:22:c2:27:9c:9c:d4:fa:fe:ac:08:dc:4c:cf:6d:
                    40:90:2e:6d:96:cb:63:1f:8e:99:93:89:84:77:c2:
                    19:b6:2d:9b:7e:6a:a6:c5:70:17:f8:61:09:d3:5f:
                    e7:17:f1:2c:3d:84:76:94:ae:33:8f:71:47:2d:7f:
                    e4:2d:3a:a9:c0:3c:a3:41:92:c9:50:54:51:26:8c:
                    e8:fe:26:23:9b:7a:cd:c5:18:d4:1d:42:5b:c6:ac:
                    96:fd:00:58:87:6e:bf:03:0b:79:15:c6:11:f3:b4:
                    8e:29:22:58:5f:ad:d4:d7:16:23:db:68:17:e3:be:
                    52:83:bb:57:ef:7c:f7:73:be:d4:f4:9a:2a:e8:9d:
                    ed:92:00:fc:e6:81:5e:c6:88:22:90:07:32:c1:02:
                    21:0e:d9:65:3a:6f:7b:17:7f:25:21:7a:cf:ad:9f:
                    46:10:6f:58:a5:2c:1d:60:8e:72:48:e9:e3:49:ea:
                    b4:08:0f:a8:df:2b:57:3d:33:cc:3f:82:24:1e:38:
                    3f:98:7f:36:0b:da:78:fe:47:74:01:27:ad:c0:3c:
                    a7:93:31:2d:aa:99:f8:c6:50:02:42:c7:34:a3:71:
                    b0:7b:87:37:01:13:04:33:3f:3a:af:5e:0c:27:46:
                    d1:46:56:e9:85:e6:d8:34:73:4d:a8:15:68:37:6e:
                    34:ab:ea:5e:8a:10:7a:3f:10:13:27:28:38:da:39:
                    73:d6:ad:15:46:42:4e:20:45:4b:cc:1f:e8:78:e9:
                    fe:99:74:52:57:e2:1d:d5:31:6b:2b:a1:57:65:43:
                    6a:04:07:97:33:20:9d:91:6c:dd:fc:30:e7:4a:fe:
                    71:81:09:5d:ab:01:2a:83:95:c9:b4:f5:64:32:f3:
                    eb:a7:8a:3b:17:ec:c8:21:c9:7d:98:6d:92:03:37:
                    f1:32:04:b6:c7:5f:8d:c1:11:8d:ec:56:ad:8b:e2:
                    00:78:f9:43:3d:5d:07:26:9c:64:68:83:88:1f:77:
                    74:85:6c:5f:98:c2:9d:a4:57:65:87:70:6e:d0:fb:
                    10:91:a3:90:e3:67:b4:33:bc:12:a2:1a:f8:dc:29:
                    1f:60:c9:c9:8c:fd:14:6b:40:47:fe:4f:84:2b:ac:
                    bd:b0:ae:d6:34:89:df:5c:e9:65:37:17:f5:da:13:
                    aa:3f:44:70:13:50:3a:dc:2e:4d:91:0f:6a:49:f4:
                    08:e1:a8:77:db:96:ff:d6:a1:e9:4a:33:28:cb:e7:
                    25:15:3d
                Exponent: 65537 (0x10001)
        X509v3 extensions:
            X509v3 Key Usage: critical
                Certificate Sign, CRL Sign
            X509v3 Basic Constraints: critical
                CA:TRUE, pathlen:0
            X509v3 Certificate Policies: 
                Policy: 1.3.124.1104.5.1.1
                  CPS: http://demo-pki.fina.hr/cps/cpdemoroot1-0.pdf

            Authority Information Access: 
                OCSP - URI:http://demo2014-ocsp.fina.hr
                CA Issuers - URI:http://demo-pki.fina.hr/certifikati/demo2014_root_ca.cer

            X509v3 CRL Distribution Points: 

                Full Name:
                  URI:http://demo-pki.fina.hr/crl/DemoRoot2014.crl

                Full Name:
                  DirName: C = HR, O = Financijska agencija, CN = Fina Demo Root CA, CN = CRL1

            X509v3 Authority Key Identifier: 
                keyid:5F:6F:5B:39:C9:7F:41:E6:E6:91:15:FA:A1:B6:B5:B2:E7:82:55:D5

            X509v3 Subject Key Identifier: 
                3B:84:5A:14:F5:C5:3C:E1:48:3B:5D:D1:27:35:7B:D5:65:BC:0E:2A
    Signature Algorithm: sha256WithRSAEncryption
         35:54:4b:52:cc:a1:5d:31:ee:68:c6:03:45:bc:aa:21:bd:a1:
         2f:09:b6:55:9c:c4:c8:c8:14:61:63:5c:fb:a5:86:85:82:82:
         71:1d:1f:00:32:5c:a3:8f:de:01:0e:eb:4c:c3:39:69:24:7f:
         88:07:e4:74:2f:c3:3e:92:16:42:dd:c8:72:7b:c1:27:10:59:
         59:1c:d8:67:60:cd:ee:31:ce:8f:51:9a:b4:06:3e:6c:4f:04:
         2c:66:99:fd:38:96:72:67:8f:64:46:b3:7a:62:75:a0:23:30:
         a5:e8:ea:21:07:27:12:92:7f:e7:56:06:6c:c5:42:c0:bb:84:
         27:b2:39:f8:c5:4a:6c:8e:b5:f7:d7:9b:4a:e2:e4:c4:4b:77:
         c1:4d:42:51:b1:21:49:c3:f4:00:80:9b:c4:c1:0e:9c:d6:0b:
         df:b0:17:be:13:f7:2d:23:c9:21:cd:31:54:cf:71:1b:6e:aa:
         31:80:dd:b7:0b:11:8d:be:6c:c6:e7:1a:e8:db:28:f2:77:b0:
         2b:db:77:3d:4d:a4:84:5f:d0:71:fb:b6:39:8d:63:3c:b7:42:
         54:ef:2e:34:5b:d5:09:6a:56:6f:b7:d5:3d:dd:ff:4d:a3:37:
         ad:f6:a8:0d:b1:60:fc:50:49:19:46:63:12:8d:27:c2:66:e5:
         50:36:0c:1f:95:40:59:c1:66:1b:fb:0e:86:4a:12:12:d3:32:
         58:c4:7b:50:be:4f:40:47:93:f5:4c:72:ef:4f:2d:b1:58:18:
         65:a1:be:1b:86:e8:e9:90:86:ac:46:3f:ac:35:e8:32:77:95:
         00:ea:c7:21:f0:66:c8:d2:e6:7c:fa:89:2d:da:e5:9f:eb:b9:
         36:df:a7:d7:2e:76:9d:f5:9b:7a:ec:4b:1c:d8:21:74:50:3b:
         83:ff:e5:24:8d:96:a6:4f:54:73:ea:79:83:ee:d7:8d:34:fa:
         96:55:0c:64:10:45:8a:eb:85:4d:9b:5d:b7:21:77:dc:96:9b:
         53:2a:f6:40:c0:98:eb:39:00:d7:2c:71:f0:ce:1a:a1:76:af:
         56:52:0f:39:e8:24:16:c8:30:f6:88:5f:1c:99:55:e7:10:7c:
         ef:42:55:91:77:77:44:25:67:fd:83:df:03:d1:80:4d:f6:35:
         78:5d:21:9b:a7:02:38:c9:f5:eb:2a:bf:49:6f:cc:8e:4d:0c:
         03:ef:b1:89:19:1c:52:dc:83:41:06:7b:2d:9a:1d:fd:70:48:
         0b:97:d3:75:ef:8e:59:40:cd:42:92:7e:28:c0:d9:a5:95:a9:
         0e:24:13:64:c9:77:c5:59:40:43:ea:03:1a:fc:ee:ce:82:dc:
         37:29:18:ce:3e:70:2c:54
-----BEGIN CERTIFICATE-----
MIIG9zCCBN+gAwIBAgINAOceyVkAAAAAUygd5DANBgkqhkiG9w0BAQsFADBIMQsw
CQYDVQQGEwJIUjEdMBsGA1UEChMURmluYW5jaWpza2EgYWdlbmNpamExGjAYBgNV
BAMTEUZpbmEgRGVtbyBSb290IENBMB4XDTE0MDMyNTA0NDU0N1oXDTI0MDMyNTA1
MTU0N1owSDELMAkGA1UEBhMCSFIxHTAbBgNVBAoTFEZpbmFuY2lqc2thIGFnZW5j
aWphMRowGAYDVQQDExFGaW5hIERlbW8gQ0EgMjAxNDCCAiIwDQYJKoZIhvcNAQEB
BQADggIPADCCAgoCggIBAMBi387JXbuIneYvs/NdvheVKb7RGrX5vuIrxaHw1iZN
Gru0T0pHwr/LE6BcFSLCJ5yc1Pr+rAjcTM9tQJAubZbLYx+OmZOJhHfCGbYtm35q
psVwF/hhCdNf5xfxLD2EdpSuM49xRy1/5C06qcA8o0GSyVBUUSaM6P4mI5t6zcUY
1B1CW8aslv0AWIduvwMLeRXGEfO0jikiWF+t1NcWI9toF+O+UoO7V+9893O+1PSa
Kuid7ZIA/OaBXsaIIpAHMsECIQ7ZZTpvexd/JSF6z62fRhBvWKUsHWCOckjp40nq
tAgPqN8rVz0zzD+CJB44P5h/NgvaeP5HdAEnrcA8p5MxLaqZ+MZQAkLHNKNxsHuH
NwETBDM/Oq9eDCdG0UZW6YXm2DRzTagVaDduNKvqXooQej8QEycoONo5c9atFUZC
TiBFS8wf6Hjp/pl0UlfiHdUxayuhV2VDagQHlzMgnZFs3fww50r+cYEJXasBKoOV
ybT1ZDLz66eKOxfsyCHJfZhtkgM38TIEtsdfjcERjexWrYviAHj5Qz1dByacZGiD
iB93dIVsX5jCnaRXZYdwbtD7EJGjkONntDO8EqIa+NwpH2DJyYz9FGtAR/5PhCus
vbCu1jSJ31zpZTcX9doTqj9EcBNQOtwuTZEPakn0COGod9uW/9ah6UozKMvnJRU9
AgMBAAGjggHeMIIB2jAOBgNVHQ8BAf8EBAMCAQYwEgYDVR0TAQH/BAgwBgEB/wIB
ADBRBgNVHSAESjBIMEYGByt8iFAFAQEwOzA5BggrBgEFBQcCARYtaHR0cDovL2Rl
bW8tcGtpLmZpbmEuaHIvY3BzL2NwZGVtb3Jvb3QxLTAucGRmMH4GCCsGAQUFBwEB
BHIwcDAoBggrBgEFBQcwAYYcaHR0cDovL2RlbW8yMDE0LW9jc3AuZmluYS5ocjBE
BggrBgEFBQcwAoY4aHR0cDovL2RlbW8tcGtpLmZpbmEuaHIvY2VydGlmaWthdGkv
ZGVtbzIwMTRfcm9vdF9jYS5jZXIwgaAGA1UdHwSBmDCBlTAyoDCgLoYsaHR0cDov
L2RlbW8tcGtpLmZpbmEuaHIvY3JsL0RlbW9Sb290MjAxNC5jcmwwX6BdoFukWTBX
MQswCQYDVQQGEwJIUjEdMBsGA1UEChMURmluYW5jaWpza2EgYWdlbmNpamExGjAY
BgNVBAMTEUZpbmEgRGVtbyBSb290IENBMQ0wCwYDVQQDEwRDUkwxMB8GA1UdIwQY
MBaAFF9vWznJf0Hm5pEV+qG2tbLnglXVMB0GA1UdDgQWBBQ7hFoU9cU84Ug7XdEn
NXvVZbwOKjANBgkqhkiG9w0BAQsFAAOCAgEANVRLUsyhXTHuaMYDRbyqIb2hLwm2
VZzEyMgUYWNc+6WGhYKCcR0fADJco4/eAQ7rTMM5aSR/iAfkdC/DPpIWQt3IcnvB
JxBZWRzYZ2DN7jHOj1GatAY+bE8ELGaZ/TiWcmePZEazemJ1oCMwpejqIQcnEpJ/
51YGbMVCwLuEJ7I5+MVKbI6199ebSuLkxEt3wU1CUbEhScP0AICbxMEOnNYL37AX
vhP3LSPJIc0xVM9xG26qMYDdtwsRjb5sxuca6Nso8newK9t3PU2khF/Qcfu2OY1j
PLdCVO8uNFvVCWpWb7fVPd3/TaM3rfaoDbFg/FBJGUZjEo0nwmblUDYMH5VAWcFm
G/sOhkoSEtMyWMR7UL5PQEeT9Uxy708tsVgYZaG+G4bo6ZCGrEY/rDXoMneVAOrH
IfBmyNLmfPqJLdrln+u5Nt+n1y52nfWbeuxLHNghdFA7g//lJI2Wpk9Uc+p5g+7X
jTT6llUMZBBFiuuFTZtdtyF33JabUyr2QMCY6zkA1yxx8M4aoXavVlIPOegkFsgw
9ohfHJlV5xB870JVkXd3RCVn/YPfA9GATfY1eF0hm6cCOMn16yq/SW/Mjk0MA++x
iRkcUtyDQQZ7LZod/XBIC5fTde+OWUDNQpJ+KMDZpZWpDiQTZMl3xVlAQ+oDGvzu
zoLcNykYzj5wLFQ=
-----END CERTIFICATE-----
